target datalayout = "e-m:e-p270:32:32-p271:32:32-p272:64:64-i64:64-i128:128-f80:128-n8:16:32:64-S128"
target triple = "x86_64-pc-linux-gnu"

%class.DecodeAsModel = type { %class.QAbstractTableModel, ptr, %class.QList, %class.QList.2, %class.QList.6 }
%class.QAbstractTableModel = type { %class.QAbstractItemModel }
%class.QAbstractItemModel = type { %class.QObject }
%class.QObject = type { ptr, %class.QScopedPointer }
%class.QScopedPointer = type { ptr }
%class.QList = type { %struct.QArrayDataPointer.1 }
%struct.QArrayDataPointer.1 = type { ptr, ptr, i64 }
%class.QList.2 = type { %struct.QArrayDataPointer.5 }
%struct.QArrayDataPointer.5 = type { ptr, ptr, i64 }
%class.QList.6 = type { %struct.QArrayDataPointer.9 }
%struct.QArrayDataPointer.9 = type { ptr, ptr, i64 }
%struct.decode_dcerpc_bind_values_s = type { %struct._address, %struct._address, i32, i32, i32, i16, i64, ptr, %struct._e_guid_t, i16 }
%struct._address = type { i32, i32, ptr, ptr }
%struct._e_guid_t = type { i32, i16, i16, [8 x i8] }
%struct._guid_key = type { %struct._e_guid_t, i16 }

@.str.2 = private unnamed_addr constant [12 x i8] c"dcerpc.uuid\00", align 1
@_ZN12DecodeAsItemC1EPKcPKv = unnamed_addr alias void (ptr, ptr, ptr), ptr @_ZN12DecodeAsItemC2EPKcPKv

; Function Attrs: mustprogress nounwind uwtable
define linkonce_odr noundef ptr @_ZN17QArrayDataPointerIP12DecodeAsItemE4dataEv(ptr noundef nonnull align 8 dereferenceable(24) %0) #1 comdat align 2 {
  %2 = alloca ptr, align 8
  store ptr %0, ptr %2, align 8
  %3 = load ptr, ptr %2, align 8
  %4 = getelementptr inbounds %struct.QArrayDataPointer.1, ptr %3, i32 0, i32 1
  %5 = load ptr, ptr %4, align 8
  ret ptr %5
}

; Function Attrs: mustprogress nounwind uwtable
define linkonce_odr noundef ptr @_ZN17QArrayDataPointerIP12DecodeAsItemE3endEv(ptr noundef nonnull align 8 dereferenceable(24) %0) #1 comdat align 2 {
  %2 = alloca ptr, align 8
  store ptr %0, ptr %2, align 8
  %3 = load ptr, ptr %2, align 8
  %4 = call noundef ptr @_ZN17QArrayDataPointerIP12DecodeAsItemE4dataEv(ptr noundef nonnull align 8 dereferenceable(24) %3) #14
  %5 = getelementptr inbounds %struct.QArrayDataPointer.1, ptr %3, i32 0, i32 2
  %6 = load i64, ptr %5, align 8
  %7 = getelementptr ptr, ptr %4, i64 %6
  ret ptr %7
}

; Function Attrs: mustprogress nounwind uwtable
define linkonce_odr noundef ptr @_ZN17QArrayDataPointerIP12DecodeAsItemEptEv(ptr noundef nonnull align 8 dereferenceable(24) %0) #1 comdat align 2 {
  %2 = alloca ptr, align 8
  store ptr %0, ptr %2, align 8
  %3 = load ptr, ptr %2, align 8
  ret ptr %3
}

; Function Attrs: mustprogress uwtable
define linkonce_odr noundef nonnull align 8 dereferenceable(8) ptr @_ZN5QListIP12DecodeAsItemE11emplaceBackIJRS1_EEES4_DpOT_(ptr noundef nonnull align 8 dereferenceable(24) %0, ptr noundef nonnull align 8 dereferenceable(8) %1) #0 comdat align 2 {
  %3 = alloca ptr, align 8
  %4 = alloca ptr, align 8
  store ptr %0, ptr %3, align 8
  store ptr %1, ptr %4, align 8
  %5 = load ptr, ptr %3, align 8
  %6 = getelementptr inbounds %class.QList, ptr %5, i32 0, i32 0
  %7 = call noundef ptr @_ZN17QArrayDataPointerIP12DecodeAsItemEptEv(ptr noundef nonnull align 8 dereferenceable(24) %6) #14
  %8 = getelementptr inbounds %class.QList, ptr %5, i32 0, i32 0
  %9 = call noundef ptr @_ZN17QArrayDataPointerIP12DecodeAsItemEptEv(ptr noundef nonnull align 8 dereferenceable(24) %8) #14
  %10 = getelementptr inbounds %struct.QArrayDataPointer.1, ptr %9, i32 0, i32 2
  %11 = load i64, ptr %10, align 8
  %12 = load ptr, ptr %4, align 8
  call void @_ZN9QtPrivate12QPodArrayOpsIP12DecodeAsItemE7emplaceIJRS2_EEEvxDpOT_(ptr noundef nonnull align 8 dereferenceable(24) %7, i64 noundef %11, ptr noundef nonnull align 8 dereferenceable(8) %12)
  %13 = getelementptr inbounds %class.QList, ptr %5, i32 0, i32 0
  %14 = call noundef ptr @_ZN17QArrayDataPointerIP12DecodeAsItemE3endEv(ptr noundef nonnull align 8 dereferenceable(24) %13) #14
  %15 = getelementptr ptr, ptr %14, i64 -1
  ret ptr %15
}

; Function Attrs: mustprogress uwtable
define linkonce_odr void @_ZN5QListIP12DecodeAsItemE6appendES1_(ptr noundef nonnull align 8 dereferenceable(24) %0, ptr noundef %1) #0 comdat align 2 {
  %3 = alloca ptr, align 8
  %4 = alloca ptr, align 8
  store ptr %0, ptr %3, align 8
  store ptr %1, ptr %4, align 8
  %5 = load ptr, ptr %3, align 8
  %6 = call noundef nonnull align 8 dereferenceable(8) ptr @_ZN5QListIP12DecodeAsItemE11emplaceBackIJRS1_EEES4_DpOT_(ptr noundef nonnull align 8 dereferenceable(24) %5, ptr noundef nonnull align 8 dereferenceable(8) %4)
  ret void
}

; Function Attrs: mustprogress uwtable
define linkonce_odr noundef nonnull align 8 dereferenceable(24) ptr @_ZN5QListIP12DecodeAsItemElsES1_(ptr noundef nonnull align 8 dereferenceable(24) %0, ptr noundef %1) #0 comdat align 2 {
  %3 = alloca ptr, align 8
  %4 = alloca ptr, align 8
  store ptr %0, ptr %3, align 8
  store ptr %1, ptr %4, align 8
  %5 = load ptr, ptr %3, align 8
  %6 = load ptr, ptr %4, align 8
  call void @_ZN5QListIP12DecodeAsItemE6appendES1_(ptr noundef nonnull align 8 dereferenceable(24) %5, ptr noundef %6)
  ret ptr %5
}

; Function Attrs: mustprogress uwtable
define void @_ZN13DecodeAsModel22buildDceRpcChangedListEPvS0_(ptr noundef %0, ptr noundef %1) #0 align 2 personality ptr @__gxx_personality_v0 {
  %3 = alloca ptr, align 8
  %4 = alloca ptr, align 8
  %5 = alloca ptr, align 8
  %6 = alloca %struct._guid_key, align 4
  %7 = alloca ptr, align 8
  %8 = alloca ptr, align 8
  %9 = alloca ptr, align 8
  %10 = alloca ptr, align 8
  %11 = alloca i32, align 4
  store ptr %0, ptr %3, align 8
  store ptr %1, ptr %4, align 8
  %12 = load ptr, ptr %3, align 8
  store ptr %12, ptr %7, align 8
  %13 = load ptr, ptr %4, align 8
  store ptr %13, ptr %8, align 8
  %14 = load ptr, ptr %8, align 8
  %15 = icmp eq ptr %14, null
  br i1 %15, label %16, label %17

16:                                               ; preds = %2
  br label %36

17:                                               ; preds = %2
  %18 = call noalias noundef nonnull ptr @_Znwm(i64 noundef 120) #19
  %19 = load ptr, ptr %7, align 8
  invoke void @_ZN12DecodeAsItemC1EPKcPKv(ptr noundef nonnull align 8 dereferenceable(120) %18, ptr noundef @.str.2, ptr noundef %19)
          to label %20 unwind label %37

20:                                               ; preds = %17
  store ptr %18, ptr %9, align 8
  %21 = call ptr @find_dissector_table(ptr noundef @.str.2)
  store ptr %21, ptr %5, align 8
  %22 = load ptr, ptr %7, align 8
  %23 = getelementptr inbounds %struct.decode_dcerpc_bind_values_s, ptr %22, i32 0, i32 9
  %24 = load i16, ptr %23, align 8
  %25 = getelementptr inbounds %struct._guid_key, ptr %6, i32 0, i32 1
  store i16 %24, ptr %25, align 4
  %26 = load ptr, ptr %7, align 8
  %27 = getelementptr inbounds %struct.decode_dcerpc_bind_values_s, ptr %26, i32 0, i32 8
  %28 = getelementptr inbounds %struct._guid_key, ptr %6, i32 0, i32 0
  call void @llvm.memcpy.p0.p0.i64(ptr align 4 %28, ptr align 8 %27, i64 16, i1 false)
  %29 = load ptr, ptr %9, align 8
  %30 = load ptr, ptr %5, align 8
  %31 = call ptr @dissector_get_guid_handle(ptr noundef %30, ptr noundef %6)
  call void @_ZN12DecodeAsItem18setDissectorHandleEP16dissector_handle(ptr noundef nonnull align 8 dereferenceable(120) %29, ptr noundef %31)
  %32 = load ptr, ptr %8, align 8
  %33 = getelementptr inbounds %class.DecodeAsModel, ptr %32, i32 0, i32 2
  %34 = load ptr, ptr %9, align 8
  %35 = call noundef nonnull align 8 dereferenceable(24) ptr @_ZN5QListIP12DecodeAsItemElsES1_(ptr noundef nonnull align 8 dereferenceable(24) %33, ptr noundef %34)
  br label %36

36:                                               ; preds = %20, %16
  ret void

37:                                               ; preds = %17
  %38 = landingpad { ptr, i32 }
          cleanup
  %39 = extractvalue { ptr, i32 } %38, 0
  store ptr %39, ptr %10, align 8
  %40 = extractvalue { ptr, i32 } %38, 1
  store i32 %40, ptr %11, align 4
  call void @_ZdlPv(ptr noundef %18) #16
  br label %41

41:                                               ; preds = %37
  %42 = load ptr, ptr %10, align 8
  %43 = load i32, ptr %11, align 4
  %44 = insertvalue { ptr, i32 } poison, ptr %42, 0
  %45 = insertvalue { ptr, i32 } %44, i32 %43, 1
  resume { ptr, i32 } %45
}