; Function Attrs: mustprogress uwtable
define void @_ZN13DecodeAsModel22buildDceRpcChangedListEPvS0_(ptr noundef %0, ptr noundef %1) #0 align 2 personality ptr @__gxx_personality_v0 {
  %3 = alloca ptr, align 8
  %4 = alloca %struct._guid_key, align 4
  %5 = icmp eq ptr %1, null
  br i1 %5, label %18, label %6

6:                                                ; preds = %2
  %7 = tail call noalias noundef nonnull dereferenceable(120) ptr @_Znwm(i64 noundef 120) #23
  invoke void @_ZN12DecodeAsItemC1EPKcPKv(ptr noundef nonnull align 8 dereferenceable(120) %7, ptr noundef nonnull @.str.2, ptr noundef %0)
          to label %8 unwind label %19

8:                                                ; preds = %6
  %9 = tail call ptr @find_dissector_table(ptr noundef nonnull @.str.2)
  %10 = getelementptr inbounds i8, ptr %0, i64 96
  %11 = load i16, ptr %10, align 8
  %12 = getelementptr inbounds i8, ptr %4, i64 16
  store i16 %11, ptr %12, align 4
  %13 = getelementptr inbounds i8, ptr %0, i64 80
  call void @llvm.memcpy.p0.p0.i64(ptr noundef nonnull align 4 dereferenceable(16) %4, ptr noundef nonnull align 8 dereferenceable(16) %13, i64 16, i1 false)
  %14 = call ptr @dissector_get_guid_handle(ptr noundef %9, ptr noundef nonnull %4)
  call void @_ZN12DecodeAsItem18setDissectorHandleEP16dissector_handle(ptr noundef nonnull align 8 dereferenceable(120) %7, ptr noundef %14)
  %15 = getelementptr inbounds i8, ptr %1, i64 24
  call void @llvm.lifetime.start.p0(i64 8, ptr nonnull %3)
  store ptr %7, ptr %3, align 8
  %16 = getelementptr inbounds i8, ptr %1, i64 40
  %17 = load i64, ptr %16, align 8
  call void @_ZN9QtPrivate12QPodArrayOpsIP12DecodeAsItemE7emplaceIJRS2_EEEvxDpOT_(ptr noundef nonnull align 8 dereferenceable(24) %15, i64 noundef %17, ptr noundef nonnull align 8 dereferenceable(8) %3)
  call void @llvm.lifetime.end.p0(i64 8, ptr nonnull %3)
  br label %18

18:                                               ; preds = %2, %8
  ret void

19:                                               ; preds = %6
  %20 = landingpad { ptr, i32 }
          cleanup
  tail call void @_ZdlPv(ptr noundef nonnull %7) #21
  resume { ptr, i32 } %20
}